target datalayout = "e-m:e-p270:32:32-p271:32:32-p272:64:64-i64:64-i128:128-f80:128-n8:16:32:64-S128"
target triple = "x86_64-unknown-linux-gnu"

%struct.redisServer = type { i32, i64, ptr, ptr, ptr, i32, i32, i32, i32, i32, ptr, ptr, ptr, ptr, ptr, ptr, i32, i32, i64, i32, i32, i32, i32, ptr, i32, i32, [41 x i8], i32, i64, i32, i32, i32, ptr, ptr, i32, i32, i64, ptr, ptr, ptr, ptr, [2 x i32], i32, i32, i32, i32, i32, [16 x ptr], i32, ptr, ptr, i32, [8 x %struct.connListener], i32, %struct.connListener, ptr, ptr, ptr, ptr, ptr, ptr, ptr, ptr, ptr, ptr, i32, ptr, i32, ptr, [3 x %struct.pause_event], [256 x i8], ptr, i64, i32, i32, i32, i32, i64, i32, i32, i32, i32, i32, i64, i64, i64, i64, i64, i64, i64, i64, i64, double, i64, i64, i64, i64, i64, i64, i64, i64, i64, i64, i64, i64, i64, i64, i64, i64, i64, i64, i64, i64, double, i64, i64, i64, i64, i64, ptr, i64, i64, i64, %struct.malloc_stats, i64, i64, i64, i64, i64, i64, i64, i64, i64, i64, i64, i64, double, [4 x i64], i64, i64, i64, i64, i64, i64, i64, i64, i64, i64, [7 x %struct.anon], i64, i64, i64, i64, i64, i64, [4 x %struct.durationStats], i32, i32, i32, i32, i32, i32, i32, i32, i32, i32, i64, i32, i32, i32, i32, i64, i64, i32, i32, i32, i32, i32, ptr, [3 x %struct.clientBufferLimitsConfig], i32, i32, ptr, i32, i32, i32, i32, ptr, ptr, i32, i32, i64, i64, i64, i64, i64, i32, i32, ptr, i32, i32, i64, i64, i64, i64, i64, i32, i32, i64, i32, i32, i32, i32, i32, i32, i32, i32, ptr, i32, i64, i64, i64, i64, ptr, i32, ptr, i32, i32, i32, i64, i64, i64, i64, i32, i32, i32, i32, i32, i32, ptr, i32, i32, ptr, i32, i32, i32, [2 x i32], i32, %struct.redisOpArray, i32, ptr, i32, ptr, i32, i32, i32, i32, i32, i32, i32, [41 x i8], [41 x i8], i64, i64, i64, i64, i32, i32, ptr, i64, i64, i64, i32, i32, i32, i32, i32, i32, i32, i64, ptr, ptr, ptr, ptr, i32, i32, ptr, ptr, i32, i32, i64, i64, i64, ptr, i32, ptr, i64, i32, i32, i32, i64, i32, i32, i32, i32, ptr, i32, i32, [41 x i8], i64, i32, ptr, i32, i32, i64, i64, i32, i32, i32, i32, i32, i64, [3 x i32], i32, i32, i32, [9 x i32], ptr, ptr, i32, i64, ptr, ptr, i32, i32, i32, i32, i64, i64, i64, i64, i64, i64, i64, i64, i64, i64, i32, i32, i64, i64, i32, i64, i64, i64, i64, i64, ptr, ptr, i32, ptr, i32, i32, i32, i64, i64, ptr, ptr, i32, i32, i32, i32, i32, ptr, ptr, ptr, i32, i32, i32, i32, i32, i32, i32, i64, i32, i64, i32, i32, i32, i32, i32, i32, i32, i64, ptr, ptr, i64, ptr, i32, %struct.aclInfo, i32, i64, i32, i32, i32, %struct.redisTLSContextConfig, ptr, ptr, ptr, ptr, ptr, i64, i32, ptr, i32, i32, i32, i64, i32, ptr }
%struct.connListener = type { [16 x i32], i32, ptr, i32, i32, ptr, ptr }
%struct.pause_event = type { i32, i64 }
%struct.malloc_stats = type { i64, i64, i64, i64, i64 }
%struct.anon = type { i64, i64, [16 x i64], i32 }
%struct.durationStats = type { i64, i64, i64 }
%struct.clientBufferLimitsConfig = type { i64, i64, i64 }
%struct.redisOpArray = type { ptr, i32, i32 }
%struct.aclInfo = type { i64, i64, i64, i64 }
%struct.redisTLSContextConfig = type { ptr, ptr, ptr, ptr, ptr, ptr, ptr, ptr, ptr, ptr, ptr, ptr, i32, i32, i32, i32 }
%struct.__sigset_t = type { [16 x i64] }
%struct.ucontext_t = type { i64, ptr, %struct.stack_t, %struct.mcontext_t, %struct.__sigset_t, %struct._libc_fpstate, [4 x i64] }
%struct.stack_t = type { ptr, i32, i64 }
%struct.mcontext_t = type { [23 x i64], ptr, [8 x i64] }
%struct._libc_fpstate = type { i16, i16, i16, i16, i64, i64, i32, i32, [8 x %struct._libc_fpxreg], [16 x %struct._libc_xmmreg], [24 x i32] }
%struct._libc_fpxreg = type { [4 x i16], i16, [3 x i16] }
%struct._libc_xmmreg = type { [4 x i32] }

@server = external global %struct.redisServer, align 8
@.str.249 = private unnamed_addr constant [19 x i8] c"(%016lx) -> %016lx\00", align 1
@.str.250 = private unnamed_addr constant [26 x i8] c"\0A------ REGISTERS ------\0A\00", align 1
@.str.251 = private unnamed_addr constant [213 x i8] c"\0ARAX:%016lx RBX:%016lx\0ARCX:%016lx RDX:%016lx\0ARDI:%016lx RSI:%016lx\0ARBP:%016lx RSP:%016lx\0AR8 :%016lx R9 :%016lx\0AR10:%016lx R11:%016lx\0AR12:%016lx R13:%016lx\0AR14:%016lx R15:%016lx\0ARIP:%016lx EFL:%016lx\0ACSGSFS:%016lx\00", align 1

; Function Attrs: nounwind uwtable
define dso_local void @logStackContent(ptr noundef %sp) #0 {
entry:
  %sp.addr = alloca ptr, align 8
  %i = alloca i32, align 4
  %addr = alloca i64, align 8
  %val = alloca i64, align 8
  store ptr %sp, ptr %sp.addr, align 8
  store i32 15, ptr %i, align 4
  br label %for.cond

for.cond:                                         ; preds = %for.inc, %entry
  %0 = load i32, ptr %i, align 4
  %cmp = icmp sge i32 %0, 0
  br i1 %cmp, label %for.body, label %for.end

for.body:                                         ; preds = %for.cond
  %1 = load ptr, ptr %sp.addr, align 8
  %2 = ptrtoint ptr %1 to i64
  %3 = load i32, ptr %i, align 4
  %conv = sext i32 %3 to i64
  %add = add i64 %2, %conv
  store i64 %add, ptr %addr, align 8
  %4 = load ptr, ptr %sp.addr, align 8
  %5 = load i32, ptr %i, align 4
  %idxprom = sext i32 %5 to i64
  %arrayidx = getelementptr inbounds ptr, ptr %4, i64 %idxprom
  %6 = load ptr, ptr %arrayidx, align 8
  %7 = ptrtoint ptr %6 to i64
  store i64 %7, ptr %val, align 8
  br label %do.body

do.body:                                          ; preds = %for.body
  %8 = load i32, ptr getelementptr inbounds (%struct.redisServer, ptr @server, i32 0, i32 156), align 8
  %cmp1 = icmp slt i32 3, %8
  br i1 %cmp1, label %if.then, label %if.end

if.then:                                          ; preds = %do.body
  br label %do.end

if.end:                                           ; preds = %do.body
  %9 = load i64, ptr %addr, align 8
  %10 = load i64, ptr %val, align 8
  call void (i32, ptr, ...) @_serverLog(i32 noundef 3, ptr noundef @.str.249, i64 noundef %9, i64 noundef %10)
  br label %do.end

do.end:                                           ; preds = %if.end, %if.then
  br label %for.inc

for.inc:                                          ; preds = %do.end
  %11 = load i32, ptr %i, align 4
  %dec = add nsw i32 %11, -1
  store i32 %dec, ptr %i, align 4
  br label %for.cond, !llvm.loop !28

for.end:                                          ; preds = %for.cond
  ret void
}

; Function Attrs: nounwind uwtable
define dso_local void @logRegisters(ptr noundef %uc) #0 {
entry:
  %uc.addr = alloca ptr, align 8
  store ptr %uc, ptr %uc.addr, align 8
  br label %do.body

do.body:                                          ; preds = %entry
  %0 = load i32, ptr getelementptr inbounds (%struct.redisServer, ptr @server, i32 0, i32 156), align 8
  %cmp = icmp slt i32 3, %0
  br i1 %cmp, label %if.then, label %if.end

if.then:                                          ; preds = %do.body
  br label %do.end

if.end:                                           ; preds = %do.body
  call void (i32, ptr, ...) @_serverLog(i32 noundef 1027, ptr noundef @.str.250)
  br label %do.end

do.end:                                           ; preds = %if.end, %if.then
  br label %do.body1

do.body1:                                         ; preds = %do.end
  %1 = load i32, ptr getelementptr inbounds (%struct.redisServer, ptr @server, i32 0, i32 156), align 8
  %cmp2 = icmp slt i32 3, %1
  br i1 %cmp2, label %if.then3, label %if.end4

if.then3:                                         ; preds = %do.body1
  br label %do.end59

if.end4:                                          ; preds = %do.body1
  %2 = load ptr, ptr %uc.addr, align 8
  %uc_mcontext = getelementptr inbounds %struct.ucontext_t, ptr %2, i32 0, i32 3
  %gregs = getelementptr inbounds %struct.mcontext_t, ptr %uc_mcontext, i32 0, i32 0
  %arrayidx = getelementptr inbounds [23 x i64], ptr %gregs, i64 0, i64 13
  %3 = load i64, ptr %arrayidx, align 8
  %4 = load ptr, ptr %uc.addr, align 8
  %uc_mcontext5 = getelementptr inbounds %struct.ucontext_t, ptr %4, i32 0, i32 3
  %gregs6 = getelementptr inbounds %struct.mcontext_t, ptr %uc_mcontext5, i32 0, i32 0
  %arrayidx7 = getelementptr inbounds [23 x i64], ptr %gregs6, i64 0, i64 11
  %5 = load i64, ptr %arrayidx7, align 8
  %6 = load ptr, ptr %uc.addr, align 8
  %uc_mcontext8 = getelementptr inbounds %struct.ucontext_t, ptr %6, i32 0, i32 3
  %gregs9 = getelementptr inbounds %struct.mcontext_t, ptr %uc_mcontext8, i32 0, i32 0
  %arrayidx10 = getelementptr inbounds [23 x i64], ptr %gregs9, i64 0, i64 14
  %7 = load i64, ptr %arrayidx10, align 8
  %8 = load ptr, ptr %uc.addr, align 8
  %uc_mcontext11 = getelementptr inbounds %struct.ucontext_t, ptr %8, i32 0, i32 3
  %gregs12 = getelementptr inbounds %struct.mcontext_t, ptr %uc_mcontext11, i32 0, i32 0
  %arrayidx13 = getelementptr inbounds [23 x i64], ptr %gregs12, i64 0, i64 12
  %9 = load i64, ptr %arrayidx13, align 8
  %10 = load ptr, ptr %uc.addr, align 8
  %uc_mcontext14 = getelementptr inbounds %struct.ucontext_t, ptr %10, i32 0, i32 3
  %gregs15 = getelementptr inbounds %struct.mcontext_t, ptr %uc_mcontext14, i32 0, i32 0
  %arrayidx16 = getelementptr inbounds [23 x i64], ptr %gregs15, i64 0, i64 8
  %11 = load i64, ptr %arrayidx16, align 8
  %12 = load ptr, ptr %uc.addr, align 8
  %uc_mcontext17 = getelementptr inbounds %struct.ucontext_t, ptr %12, i32 0, i32 3
  %gregs18 = getelementptr inbounds %struct.mcontext_t, ptr %uc_mcontext17, i32 0, i32 0
  %arrayidx19 = getelementptr inbounds [23 x i64], ptr %gregs18, i64 0, i64 9
  %13 = load i64, ptr %arrayidx19, align 8
  %14 = load ptr, ptr %uc.addr, align 8
  %uc_mcontext20 = getelementptr inbounds %struct.ucontext_t, ptr %14, i32 0, i32 3
  %gregs21 = getelementptr inbounds %struct.mcontext_t, ptr %uc_mcontext20, i32 0, i32 0
  %arrayidx22 = getelementptr inbounds [23 x i64], ptr %gregs21, i64 0, i64 10
  %15 = load i64, ptr %arrayidx22, align 8
  %16 = load ptr, ptr %uc.addr, align 8
  %uc_mcontext23 = getelementptr inbounds %struct.ucontext_t, ptr %16, i32 0, i32 3
  %gregs24 = getelementptr inbounds %struct.mcontext_t, ptr %uc_mcontext23, i32 0, i32 0
  %arrayidx25 = getelementptr inbounds [23 x i64], ptr %gregs24, i64 0, i64 15
  %17 = load i64, ptr %arrayidx25, align 8
  %18 = load ptr, ptr %uc.addr, align 8
  %uc_mcontext26 = getelementptr inbounds %struct.ucontext_t, ptr %18, i32 0, i32 3
  %gregs27 = getelementptr inbounds %struct.mcontext_t, ptr %uc_mcontext26, i32 0, i32 0
  %arrayidx28 = getelementptr inbounds [23 x i64], ptr %gregs27, i64 0, i64 0
  %19 = load i64, ptr %arrayidx28, align 8
  %20 = load ptr, ptr %uc.addr, align 8
  %uc_mcontext29 = getelementptr inbounds %struct.ucontext_t, ptr %20, i32 0, i32 3
  %gregs30 = getelementptr inbounds %struct.mcontext_t, ptr %uc_mcontext29, i32 0, i32 0
  %arrayidx31 = getelementptr inbounds [23 x i64], ptr %gregs30, i64 0, i64 1
  %21 = load i64, ptr %arrayidx31, align 8
  %22 = load ptr, ptr %uc.addr, align 8
  %uc_mcontext32 = getelementptr inbounds %struct.ucontext_t, ptr %22, i32 0, i32 3
  %gregs33 = getelementptr inbounds %struct.mcontext_t, ptr %uc_mcontext32, i32 0, i32 0
  %arrayidx34 = getelementptr inbounds [23 x i64], ptr %gregs33, i64 0, i64 2
  %23 = load i64, ptr %arrayidx34, align 8
  %24 = load ptr, ptr %uc.addr, align 8
  %uc_mcontext35 = getelementptr inbounds %struct.ucontext_t, ptr %24, i32 0, i32 3
  %gregs36 = getelementptr inbounds %struct.mcontext_t, ptr %uc_mcontext35, i32 0, i32 0
  %arrayidx37 = getelementptr inbounds [23 x i64], ptr %gregs36, i64 0, i64 3
  %25 = load i64, ptr %arrayidx37, align 8
  %26 = load ptr, ptr %uc.addr, align 8
  %uc_mcontext38 = getelementptr inbounds %struct.ucontext_t, ptr %26, i32 0, i32 3
  %gregs39 = getelementptr inbounds %struct.mcontext_t, ptr %uc_mcontext38, i32 0, i32 0
  %arrayidx40 = getelementptr inbounds [23 x i64], ptr %gregs39, i64 0, i64 4
  %27 = load i64, ptr %arrayidx40, align 8
  %28 = load ptr, ptr %uc.addr, align 8
  %uc_mcontext41 = getelementptr inbounds %struct.ucontext_t, ptr %28, i32 0, i32 3
  %gregs42 = getelementptr inbounds %struct.mcontext_t, ptr %uc_mcontext41, i32 0, i32 0
  %arrayidx43 = getelementptr inbounds [23 x i64], ptr %gregs42, i64 0, i64 5
  %29 = load i64, ptr %arrayidx43, align 8
  %30 = load ptr, ptr %uc.addr, align 8
  %uc_mcontext44 = getelementptr inbounds %struct.ucontext_t, ptr %30, i32 0, i32 3
  %gregs45 = getelementptr inbounds %struct.mcontext_t, ptr %uc_mcontext44, i32 0, i32 0
  %arrayidx46 = getelementptr inbounds [23 x i64], ptr %gregs45, i64 0, i64 6
  %31 = load i64, ptr %arrayidx46, align 8
  %32 = load ptr, ptr %uc.addr, align 8
  %uc_mcontext47 = getelementptr inbounds %struct.ucontext_t, ptr %32, i32 0, i32 3
  %gregs48 = getelementptr inbounds %struct.mcontext_t, ptr %uc_mcontext47, i32 0, i32 0
  %arrayidx49 = getelementptr inbounds [23 x i64], ptr %gregs48, i64 0, i64 7
  %33 = load i64, ptr %arrayidx49, align 8
  %34 = load ptr, ptr %uc.addr, align 8
  %uc_mcontext50 = getelementptr inbounds %struct.ucontext_t, ptr %34, i32 0, i32 3
  %gregs51 = getelementptr inbounds %struct.mcontext_t, ptr %uc_mcontext50, i32 0, i32 0
  %arrayidx52 = getelementptr inbounds [23 x i64], ptr %gregs51, i64 0, i64 16
  %35 = load i64, ptr %arrayidx52, align 8
  %36 = load ptr, ptr %uc.addr, align 8
  %uc_mcontext53 = getelementptr inbounds %struct.ucontext_t, ptr %36, i32 0, i32 3
  %gregs54 = getelementptr inbounds %struct.mcontext_t, ptr %uc_mcontext53, i32 0, i32 0
  %arrayidx55 = getelementptr inbounds [23 x i64], ptr %gregs54, i64 0, i64 17
  %37 = load i64, ptr %arrayidx55, align 8
  %38 = load ptr, ptr %uc.addr, align 8
  %uc_mcontext56 = getelementptr inbounds %struct.ucontext_t, ptr %38, i32 0, i32 3
  %gregs57 = getelementptr inbounds %struct.mcontext_t, ptr %uc_mcontext56, i32 0, i32 0
  %arrayidx58 = getelementptr inbounds [23 x i64], ptr %gregs57, i64 0, i64 18
  %39 = load i64, ptr %arrayidx58, align 8
  call void (i32, ptr, ...) @_serverLog(i32 noundef 3, ptr noundef @.str.251, i64 noundef %3, i64 noundef %5, i64 noundef %7, i64 noundef %9, i64 noundef %11, i64 noundef %13, i64 noundef %15, i64 noundef %17, i64 noundef %19, i64 noundef %21, i64 noundef %23, i64 noundef %25, i64 noundef %27, i64 noundef %29, i64 noundef %31, i64 noundef %33, i64 noundef %35, i64 noundef %37, i64 noundef %39)
  br label %do.end59

do.end59:                                         ; preds = %if.end4, %if.then3
  %40 = load ptr, ptr %uc.addr, align 8
  %uc_mcontext60 = getelementptr inbounds %struct.ucontext_t, ptr %40, i32 0, i32 3
  %gregs61 = getelementptr inbounds %struct.mcontext_t, ptr %uc_mcontext60, i32 0, i32 0
  %arrayidx62 = getelementptr inbounds [23 x i64], ptr %gregs61, i64 0, i64 15
  %41 = load i64, ptr %arrayidx62, align 8
  %42 = inttoptr i64 %41 to ptr
  call void @logStackContent(ptr noundef %42)
  ret void
}