; Function Attrs: nounwind uwtable
define dso_local void @logRegisters(ptr nocapture noundef readonly %uc) local_unnamed_addr #0 {
entry:
  %0 = load i32, ptr getelementptr inbounds (%struct.redisServer, ptr @server, i64 0, i32 156), align 8
  %cmp = icmp sgt i32 %0, 3
  br i1 %cmp, label %logStackContent.exit, label %do.body1

do.body1:                                         ; preds = %entry
  tail call void (i32, ptr, ...) @_serverLog(i32 noundef 1027, ptr noundef nonnull @.str.250) #22
  %.pr = load i32, ptr getelementptr inbounds (%struct.redisServer, ptr @server, i64 0, i32 156), align 8
  %cmp2 = icmp sgt i32 %.pr, 3
  br i1 %cmp2, label %logStackContent.exit, label %do.end59

do.end59:                                         ; preds = %do.body1
  %uc_mcontext = getelementptr inbounds i8, ptr %uc, i64 40
  %arrayidx = getelementptr inbounds i8, ptr %uc, i64 144
  %1 = load i64, ptr %arrayidx, align 8
  %arrayidx7 = getelementptr inbounds i8, ptr %uc, i64 128
  %2 = load i64, ptr %arrayidx7, align 8
  %arrayidx10 = getelementptr inbounds i8, ptr %uc, i64 152
  %3 = load i64, ptr %arrayidx10, align 8
  %arrayidx13 = getelementptr inbounds i8, ptr %uc, i64 136
  %4 = load i64, ptr %arrayidx13, align 8
  %arrayidx16 = getelementptr inbounds i8, ptr %uc, i64 104
  %5 = load i64, ptr %arrayidx16, align 8
  %arrayidx19 = getelementptr inbounds i8, ptr %uc, i64 112
  %6 = load i64, ptr %arrayidx19, align 8
  %arrayidx22 = getelementptr inbounds i8, ptr %uc, i64 120
  %7 = load i64, ptr %arrayidx22, align 8
  %arrayidx25 = getelementptr inbounds i8, ptr %uc, i64 160
  %8 = load i64, ptr %arrayidx25, align 8
  %9 = load i64, ptr %uc_mcontext, align 8
  %arrayidx31 = getelementptr inbounds i8, ptr %uc, i64 48
  %10 = load i64, ptr %arrayidx31, align 8
  %arrayidx34 = getelementptr inbounds i8, ptr %uc, i64 56
  %11 = load i64, ptr %arrayidx34, align 8
  %arrayidx37 = getelementptr inbounds i8, ptr %uc, i64 64
  %12 = load i64, ptr %arrayidx37, align 8
  %arrayidx40 = getelementptr inbounds i8, ptr %uc, i64 72
  %13 = load i64, ptr %arrayidx40, align 8
  %arrayidx43 = getelementptr inbounds i8, ptr %uc, i64 80
  %14 = load i64, ptr %arrayidx43, align 8
  %arrayidx46 = getelementptr inbounds i8, ptr %uc, i64 88
  %15 = load i64, ptr %arrayidx46, align 8
  %arrayidx49 = getelementptr inbounds i8, ptr %uc, i64 96
  %16 = load i64, ptr %arrayidx49, align 8
  %arrayidx52 = getelementptr inbounds i8, ptr %uc, i64 168
  %17 = load i64, ptr %arrayidx52, align 8
  %arrayidx55 = getelementptr inbounds i8, ptr %uc, i64 176
  %18 = load i64, ptr %arrayidx55, align 8
  %arrayidx58 = getelementptr inbounds i8, ptr %uc, i64 184
  %19 = load i64, ptr %arrayidx58, align 8
  tail call void (i32, ptr, ...) @_serverLog(i32 noundef 3, ptr noundef nonnull @.str.251, i64 noundef %1, i64 noundef %2, i64 noundef %3, i64 noundef %4, i64 noundef %5, i64 noundef %6, i64 noundef %7, i64 noundef %8, i64 noundef %9, i64 noundef %10, i64 noundef %11, i64 noundef %12, i64 noundef %13, i64 noundef %14, i64 noundef %15, i64 noundef %16, i64 noundef %17, i64 noundef %18, i64 noundef %19) #22
  %.pr21 = load i32, ptr getelementptr inbounds (%struct.redisServer, ptr @server, i64 0, i32 156), align 8
  %20 = load i64, ptr %arrayidx25, align 8
  %21 = inttoptr i64 %20 to ptr
  %22 = icmp sgt i32 %.pr21, 3
  br i1 %22, label %logStackContent.exit, label %for.body.i

for.body.i:                                       ; preds = %do.end59, %for.inc.i
  %23 = phi i32 [ %26, %for.inc.i ], [ %.pr21, %do.end59 ]
  %indvars.iv.i = phi i64 [ %indvars.iv.next.i, %for.inc.i ], [ 15, %do.end59 ]
  %cmp1.i = icmp sgt i32 %23, 3
  br i1 %cmp1.i, label %for.inc.i, label %if.end.i

if.end.i:                                         ; preds = %for.body.i
  %arrayidx.i = getelementptr inbounds ptr, ptr %21, i64 %indvars.iv.i
  %24 = load ptr, ptr %arrayidx.i, align 8
  %25 = ptrtoint ptr %24 to i64
  %add.i = add i64 %indvars.iv.i, %20
  tail call void (i32, ptr, ...) @_serverLog(i32 noundef 3, ptr noundef nonnull @.str.249, i64 noundef %add.i, i64 noundef %25) #22
  %.pre.i = load i32, ptr getelementptr inbounds (%struct.redisServer, ptr @server, i64 0, i32 156), align 8
  br label %for.inc.i

for.inc.i:                                        ; preds = %if.end.i, %for.body.i
  %26 = phi i32 [ %.pre.i, %if.end.i ], [ %23, %for.body.i ]
  %indvars.iv.next.i = add nsw i64 %indvars.iv.i, -1
  %cmp.not.i = icmp eq i64 %indvars.iv.i, 0
  br i1 %cmp.not.i, label %logStackContent.exit, label %for.body.i, !llvm.loop !33

logStackContent.exit:                             ; preds = %for.inc.i, %entry, %do.body1, %do.end59
  ret void
}